target datalayout = "e-m:e-p270:32:32-p271:32:32-p272:64:64-i64:64-i128:128-f80:128-n8:16:32:64-S128"
target triple = "x86_64-pc-linux-gnu"

@OldestMemberMXactId = internal global ptr null, align 8

; Function Attrs: nounwind uwtable
define dso_local void @multixact_twophase_recover(i32 noundef %0, i16 noundef zeroext %1, ptr noundef %2, i32 noundef %3) #0 {
  %5 = alloca i32, align 4
  %6 = alloca i16, align 2
  %7 = alloca ptr, align 8
  %8 = alloca i32, align 4
  %9 = alloca i32, align 4
  %10 = alloca i32, align 4
  store i32 %0, ptr %5, align 4
  store i16 %1, ptr %6, align 2
  store ptr %2, ptr %7, align 8
  store i32 %3, ptr %8, align 4
  call void @llvm.lifetime.start.p0(i64 4, ptr %9) #9
  %11 = load i32, ptr %5, align 4
  %12 = call i32 @TwoPhaseGetDummyProcNumber(i32 noundef %11, i1 noundef zeroext false)
  store i32 %12, ptr %9, align 4
  call void @llvm.lifetime.start.p0(i64 4, ptr %10) #9
  %13 = load ptr, ptr %7, align 8
  %14 = load i32, ptr %13, align 4
  store i32 %14, ptr %10, align 4
  %15 = load i32, ptr %10, align 4
  %16 = load ptr, ptr @OldestMemberMXactId, align 8
  %17 = load i32, ptr %9, align 4
  %18 = sext i32 %17 to i64
  %19 = getelementptr inbounds i32, ptr %16, i64 %18
  store i32 %15, ptr %19, align 4
  call void @llvm.lifetime.end.p0(i64 4, ptr %10) #9
  call void @llvm.lifetime.end.p0(i64 4, ptr %9) #9
  ret void
}