; Function Attrs: nounwind uwtable
define dso_local void @multixact_twophase_recover(i32 noundef %0, i16 noundef zeroext %1, ptr noundef readonly captures(none) %2, i32 noundef %3) local_unnamed_addr #0 {
  %5 = tail call i32 @TwoPhaseGetDummyProcNumber(i32 noundef %0, i1 noundef zeroext false) #13
  %6 = load i32, ptr %2, align 4
  %7 = load ptr, ptr @OldestMemberMXactId, align 8
  %8 = sext i32 %5 to i64
  %9 = getelementptr inbounds i32, ptr %7, i64 %8
  store i32 %6, ptr %9, align 4
  ret void
}